ARM GAS  C:\Users\hh\AppData\Local\Temp\ccdd1UXK.s 			page 1


   1              		.cpu cortex-m4
   2              		.arch armv7e-m
   3              		.fpu fpv4-sp-d16
   4              		.eabi_attribute 27, 1
   5              		.eabi_attribute 28, 1
   6              		.eabi_attribute 20, 1
   7              		.eabi_attribute 21, 1
   8              		.eabi_attribute 23, 3
   9              		.eabi_attribute 24, 1
  10              		.eabi_attribute 25, 1
  11              		.eabi_attribute 26, 1
  12              		.eabi_attribute 30, 1
  13              		.eabi_attribute 34, 1
  14              		.eabi_attribute 18, 4
  15              		.file	"led.c"
  16              		.text
  17              	.Ltext0:
  18              		.cfi_sections	.debug_frame
  19              		.section	.text.MX_GPIO_Init,"ax",%progbits
  20              		.align	1
  21              		.global	MX_GPIO_Init
  22              		.syntax unified
  23              		.thumb
  24              		.thumb_func
  26              	MX_GPIO_Init:
  27              	.LFB130:
  28              		.file 1 "Core/Src/led.c"
   1:Core/Src/led.c **** #include "led.h"
   2:Core/Src/led.c **** 
   3:Core/Src/led.c **** /**
   4:Core/Src/led.c ****   * @brief GPIO Initialization Function
   5:Core/Src/led.c ****   * @param None
   6:Core/Src/led.c ****   * @retval None
   7:Core/Src/led.c ****   */
   8:Core/Src/led.c **** void MX_GPIO_Init(void)
   9:Core/Src/led.c **** {
  29              		.loc 1 9 1 view -0
  30              		.cfi_startproc
  31              		@ args = 0, pretend = 0, frame = 32
  32              		@ frame_needed = 0, uses_anonymous_args = 0
  33 0000 30B5     		push	{r4, r5, lr}
  34              	.LCFI0:
  35              		.cfi_def_cfa_offset 12
  36              		.cfi_offset 4, -12
  37              		.cfi_offset 5, -8
  38              		.cfi_offset 14, -4
  39 0002 89B0     		sub	sp, sp, #36
  40              	.LCFI1:
  41              		.cfi_def_cfa_offset 48
  10:Core/Src/led.c ****   GPIO_InitTypeDef GPIO_InitStruct = {0};
  42              		.loc 1 10 3 view .LVU1
  43              		.loc 1 10 20 is_stmt 0 view .LVU2
  44 0004 0024     		movs	r4, #0
  45 0006 0394     		str	r4, [sp, #12]
  46 0008 0494     		str	r4, [sp, #16]
  47 000a 0594     		str	r4, [sp, #20]
  48 000c 0694     		str	r4, [sp, #24]
ARM GAS  C:\Users\hh\AppData\Local\Temp\ccdd1UXK.s 			page 2


  49 000e 0794     		str	r4, [sp, #28]
  11:Core/Src/led.c **** 
  12:Core/Src/led.c ****   /* GPIO Ports Clock Enable */
  13:Core/Src/led.c ****   __HAL_RCC_GPIOH_CLK_ENABLE();
  50              		.loc 1 13 3 is_stmt 1 view .LVU3
  51              	.LBB2:
  52              		.loc 1 13 3 view .LVU4
  53 0010 0094     		str	r4, [sp]
  54              		.loc 1 13 3 view .LVU5
  55 0012 194B     		ldr	r3, .L3
  56 0014 1A6B     		ldr	r2, [r3, #48]
  57 0016 42F08002 		orr	r2, r2, #128
  58 001a 1A63     		str	r2, [r3, #48]
  59              		.loc 1 13 3 view .LVU6
  60 001c 1A6B     		ldr	r2, [r3, #48]
  61 001e 02F08002 		and	r2, r2, #128
  62 0022 0092     		str	r2, [sp]
  63              		.loc 1 13 3 view .LVU7
  64 0024 009A     		ldr	r2, [sp]
  65              	.LBE2:
  66              		.loc 1 13 3 view .LVU8
  14:Core/Src/led.c ****   __HAL_RCC_GPIOD_CLK_ENABLE();
  67              		.loc 1 14 3 view .LVU9
  68              	.LBB3:
  69              		.loc 1 14 3 view .LVU10
  70 0026 0194     		str	r4, [sp, #4]
  71              		.loc 1 14 3 view .LVU11
  72 0028 1A6B     		ldr	r2, [r3, #48]
  73 002a 42F00802 		orr	r2, r2, #8
  74 002e 1A63     		str	r2, [r3, #48]
  75              		.loc 1 14 3 view .LVU12
  76 0030 1A6B     		ldr	r2, [r3, #48]
  77 0032 02F00802 		and	r2, r2, #8
  78 0036 0192     		str	r2, [sp, #4]
  79              		.loc 1 14 3 view .LVU13
  80 0038 019A     		ldr	r2, [sp, #4]
  81              	.LBE3:
  82              		.loc 1 14 3 view .LVU14
  15:Core/Src/led.c ****   __HAL_RCC_GPIOA_CLK_ENABLE();
  83              		.loc 1 15 3 view .LVU15
  84              	.LBB4:
  85              		.loc 1 15 3 view .LVU16
  86 003a 0294     		str	r4, [sp, #8]
  87              		.loc 1 15 3 view .LVU17
  88 003c 1A6B     		ldr	r2, [r3, #48]
  89 003e 42F00102 		orr	r2, r2, #1
  90 0042 1A63     		str	r2, [r3, #48]
  91              		.loc 1 15 3 view .LVU18
  92 0044 1B6B     		ldr	r3, [r3, #48]
  93 0046 03F00103 		and	r3, r3, #1
  94 004a 0293     		str	r3, [sp, #8]
  95              		.loc 1 15 3 view .LVU19
  96 004c 029B     		ldr	r3, [sp, #8]
  97              	.LBE4:
  98              		.loc 1 15 3 view .LVU20
  16:Core/Src/led.c **** 
  17:Core/Src/led.c ****   /*Configure GPIO pin Output Level */
ARM GAS  C:\Users\hh\AppData\Local\Temp\ccdd1UXK.s 			page 3


  18:Core/Src/led.c ****   HAL_GPIO_WritePin(GPIOD, GPIO_PIN_12, GPIO_PIN_RESET);
  99              		.loc 1 18 3 view .LVU21
 100 004e 0B4D     		ldr	r5, .L3+4
 101 0050 2246     		mov	r2, r4
 102 0052 4FF48051 		mov	r1, #4096
 103 0056 2846     		mov	r0, r5
 104 0058 FFF7FEFF 		bl	HAL_GPIO_WritePin
 105              	.LVL0:
  19:Core/Src/led.c **** 
  20:Core/Src/led.c ****   /*Configure GPIO pin : PD12 */
  21:Core/Src/led.c ****   GPIO_InitStruct.Pin = GPIO_PIN_12;
 106              		.loc 1 21 3 view .LVU22
 107              		.loc 1 21 23 is_stmt 0 view .LVU23
 108 005c 4FF48053 		mov	r3, #4096
 109 0060 0393     		str	r3, [sp, #12]
  22:Core/Src/led.c ****   GPIO_InitStruct.Mode = GPIO_MODE_OUTPUT_PP;
 110              		.loc 1 22 3 is_stmt 1 view .LVU24
 111              		.loc 1 22 24 is_stmt 0 view .LVU25
 112 0062 0123     		movs	r3, #1
 113 0064 0493     		str	r3, [sp, #16]
  23:Core/Src/led.c ****   GPIO_InitStruct.Pull = GPIO_PULLUP;
 114              		.loc 1 23 3 is_stmt 1 view .LVU26
 115              		.loc 1 23 24 is_stmt 0 view .LVU27
 116 0066 0593     		str	r3, [sp, #20]
  24:Core/Src/led.c ****   GPIO_InitStruct.Speed = GPIO_SPEED_FREQ_LOW;
 117              		.loc 1 24 3 is_stmt 1 view .LVU28
 118              		.loc 1 24 25 is_stmt 0 view .LVU29
 119 0068 0694     		str	r4, [sp, #24]
  25:Core/Src/led.c ****   HAL_GPIO_Init(GPIOD, &GPIO_InitStruct);
 120              		.loc 1 25 3 is_stmt 1 view .LVU30
 121 006a 03A9     		add	r1, sp, #12
 122 006c 2846     		mov	r0, r5
 123 006e FFF7FEFF 		bl	HAL_GPIO_Init
 124              	.LVL1:
  26:Core/Src/led.c **** 
  27:Core/Src/led.c **** }
 125              		.loc 1 27 1 is_stmt 0 view .LVU31
 126 0072 09B0     		add	sp, sp, #36
 127              	.LCFI2:
 128              		.cfi_def_cfa_offset 12
 129              		@ sp needed
 130 0074 30BD     		pop	{r4, r5, pc}
 131              	.L4:
 132 0076 00BF     		.align	2
 133              	.L3:
 134 0078 00380240 		.word	1073887232
 135 007c 000C0240 		.word	1073875968
 136              		.cfi_endproc
 137              	.LFE130:
 139              		.text
 140              	.Letext0:
 141              		.file 2 "d:\\gun arm embedded toolchain\\10 2021.10\\arm-none-eabi\\include\\machine\\_default_typ
 142              		.file 3 "d:\\gun arm embedded toolchain\\10 2021.10\\arm-none-eabi\\include\\sys\\_stdint.h"
 143              		.file 4 "Drivers/CMSIS/Device/ST/STM32F4xx/Include/stm32f429xx.h"
 144              		.file 5 "Drivers/STM32F4xx_HAL_Driver/Inc/stm32f4xx_hal_gpio.h"
ARM GAS  C:\Users\hh\AppData\Local\Temp\ccdd1UXK.s 			page 4

